target datalayout = "e-m:e-p270:32:32-p271:32:32-p272:64:64-i64:64-i128:128-f80:128-n8:16:32:64-S128"
target triple = "x86_64-pc-linux-gnu"

%struct.SDL_BlitInfo = type { ptr, ptr, i32, i32, i32, i32, ptr, ptr, i32, i32, i32, i32, ptr, ptr, ptr, ptr, ptr, ptr, i32, i32, i8, i8, i8, i8 }
%struct.SDL_PixelFormatDetails = type { i32, i8, i8, [2 x i8], i32, i32, i32, i32, i8, i8, i8, i8, i8, i8, i8, i8 }

; Function Attrs: nounwind uwtable
define internal void @Blit8888to8888PixelAlphaSwizzle(ptr noundef %0) #0 {
  %2 = alloca ptr, align 8
  %3 = alloca i32, align 4
  %4 = alloca i32, align 4
  %5 = alloca ptr, align 8
  %6 = alloca i32, align 4
  %7 = alloca ptr, align 8
  %8 = alloca i32, align 4
  %9 = alloca ptr, align 8
  %10 = alloca ptr, align 8
  %11 = alloca i8, align 1
  %12 = alloca i32, align 4
  %13 = alloca i32, align 4
  %14 = alloca i32, align 4
  %15 = alloca i32, align 4
  %16 = alloca i32, align 4
  %17 = alloca i32, align 4
  %18 = alloca i32, align 4
  %19 = alloca i64, align 8
  %20 = alloca i64, align 8
  store ptr %0, ptr %2, align 8
  call void @llvm.lifetime.start.p0(i64 4, ptr %3) #3
  %21 = load ptr, ptr %2, align 8
  %22 = getelementptr inbounds nuw %struct.SDL_BlitInfo, ptr %21, i32 0, i32 8
  %23 = load i32, ptr %22, align 8
  store i32 %23, ptr %3, align 4
  call void @llvm.lifetime.start.p0(i64 4, ptr %4) #3
  %24 = load ptr, ptr %2, align 8
  %25 = getelementptr inbounds nuw %struct.SDL_BlitInfo, ptr %24, i32 0, i32 9
  %26 = load i32, ptr %25, align 4
  store i32 %26, ptr %4, align 4
  call void @llvm.lifetime.start.p0(i64 8, ptr %5) #3
  %27 = load ptr, ptr %2, align 8
  %28 = getelementptr inbounds nuw %struct.SDL_BlitInfo, ptr %27, i32 0, i32 1
  %29 = load ptr, ptr %28, align 8
  store ptr %29, ptr %5, align 8
  call void @llvm.lifetime.start.p0(i64 4, ptr %6) #3
  %30 = load ptr, ptr %2, align 8
  %31 = getelementptr inbounds nuw %struct.SDL_BlitInfo, ptr %30, i32 0, i32 5
  %32 = load i32, ptr %31, align 4
  store i32 %32, ptr %6, align 4
  call void @llvm.lifetime.start.p0(i64 8, ptr %7) #3
  %33 = load ptr, ptr %2, align 8
  %34 = getelementptr inbounds nuw %struct.SDL_BlitInfo, ptr %33, i32 0, i32 7
  %35 = load ptr, ptr %34, align 8
  store ptr %35, ptr %7, align 8
  call void @llvm.lifetime.start.p0(i64 4, ptr %8) #3
  %36 = load ptr, ptr %2, align 8
  %37 = getelementptr inbounds nuw %struct.SDL_BlitInfo, ptr %36, i32 0, i32 11
  %38 = load i32, ptr %37, align 4
  store i32 %38, ptr %8, align 4
  call void @llvm.lifetime.start.p0(i64 8, ptr %9) #3
  %39 = load ptr, ptr %2, align 8
  %40 = getelementptr inbounds nuw %struct.SDL_BlitInfo, ptr %39, i32 0, i32 12
  %41 = load ptr, ptr %40, align 8
  store ptr %41, ptr %9, align 8
  call void @llvm.lifetime.start.p0(i64 8, ptr %10) #3
  %42 = load ptr, ptr %2, align 8
  %43 = getelementptr inbounds nuw %struct.SDL_BlitInfo, ptr %42, i32 0, i32 14
  %44 = load ptr, ptr %43, align 8
  store ptr %44, ptr %10, align 8
  call void @llvm.lifetime.start.p0(i64 1, ptr %11) #3
  %45 = load ptr, ptr %10, align 8
  %46 = getelementptr inbounds nuw %struct.SDL_PixelFormatDetails, ptr %45, i32 0, i32 7
  %47 = load i32, ptr %46, align 4
  %48 = icmp ne i32 %47, 0
  %49 = xor i1 %48, true
  %50 = zext i1 %49 to i8
  store i8 %50, ptr %11, align 1
  call void @llvm.lifetime.start.p0(i64 4, ptr %12) #3
  call void @llvm.lifetime.start.p0(i64 4, ptr %13) #3
  %51 = load ptr, ptr %10, align 8
  call void @SDL_Get8888AlphaMaskAndShift(ptr noundef %51, ptr noundef %12, ptr noundef %13)
  br label %52

52:                                               ; preds = %177, %1
  %53 = load i32, ptr %4, align 4
  %54 = add nsw i32 %53, -1
  store i32 %54, ptr %4, align 4
  %55 = icmp ne i32 %53, 0
  br i1 %55, label %56, label %186

56:                                               ; preds = %52
  call void @llvm.lifetime.start.p0(i64 4, ptr %14) #3
  store i32 0, ptr %14, align 4
  br label %57

57:                                               ; preds = %174, %56
  %58 = load i32, ptr %14, align 4
  %59 = load i32, ptr %3, align 4
  %60 = icmp slt i32 %58, %59
  br i1 %60, label %61, label %177

61:                                               ; preds = %57
  call void @llvm.lifetime.start.p0(i64 4, ptr %15) #3
  %62 = load ptr, ptr %5, align 8
  %63 = load i32, ptr %62, align 4
  store i32 %63, ptr %15, align 4
  call void @llvm.lifetime.start.p0(i64 4, ptr %16) #3
  %64 = load ptr, ptr %7, align 8
  %65 = load i32, ptr %64, align 4
  store i32 %65, ptr %16, align 4
  br label %66

66:                                               ; preds = %61
  call void @llvm.lifetime.start.p0(i64 4, ptr %17) #3
  %67 = load i32, ptr %15, align 4
  %68 = load ptr, ptr %9, align 8
  %69 = getelementptr inbounds nuw %struct.SDL_PixelFormatDetails, ptr %68, i32 0, i32 15
  %70 = load i8, ptr %69, align 1
  %71 = zext i8 %70 to i32
  %72 = lshr i32 %67, %71
  %73 = and i32 %72, 255
  store i32 %73, ptr %17, align 4
  call void @llvm.lifetime.start.p0(i64 4, ptr %18) #3
  %74 = load i32, ptr %15, align 4
  %75 = load ptr, ptr %9, align 8
  %76 = getelementptr inbounds nuw %struct.SDL_PixelFormatDetails, ptr %75, i32 0, i32 12
  %77 = load i8, ptr %76, align 4
  %78 = zext i8 %77 to i32
  %79 = lshr i32 %74, %78
  %80 = and i32 %79, 255
  %81 = load ptr, ptr %10, align 8
  %82 = getelementptr inbounds nuw %struct.SDL_PixelFormatDetails, ptr %81, i32 0, i32 12
  %83 = load i8, ptr %82, align 4
  %84 = zext i8 %83 to i32
  %85 = shl i32 %80, %84
  %86 = load i32, ptr %15, align 4
  %87 = load ptr, ptr %9, align 8
  %88 = getelementptr inbounds nuw %struct.SDL_PixelFormatDetails, ptr %87, i32 0, i32 13
  %89 = load i8, ptr %88, align 1
  %90 = zext i8 %89 to i32
  %91 = lshr i32 %86, %90
  %92 = and i32 %91, 255
  %93 = load ptr, ptr %10, align 8
  %94 = getelementptr inbounds nuw %struct.SDL_PixelFormatDetails, ptr %93, i32 0, i32 13
  %95 = load i8, ptr %94, align 1
  %96 = zext i8 %95 to i32
  %97 = shl i32 %92, %96
  %98 = or i32 %85, %97
  %99 = load i32, ptr %15, align 4
  %100 = load ptr, ptr %9, align 8
  %101 = getelementptr inbounds nuw %struct.SDL_PixelFormatDetails, ptr %100, i32 0, i32 14
  %102 = load i8, ptr %101, align 2
  %103 = zext i8 %102 to i32
  %104 = lshr i32 %99, %103
  %105 = and i32 %104, 255
  %106 = load ptr, ptr %10, align 8
  %107 = getelementptr inbounds nuw %struct.SDL_PixelFormatDetails, ptr %106, i32 0, i32 14
  %108 = load i8, ptr %107, align 2
  %109 = zext i8 %108 to i32
  %110 = shl i32 %105, %109
  %111 = or i32 %98, %110
  %112 = load ptr, ptr %10, align 8
  %113 = getelementptr inbounds nuw %struct.SDL_PixelFormatDetails, ptr %112, i32 0, i32 7
  %114 = load i32, ptr %113, align 4
  %115 = or i32 %111, %114
  store i32 %115, ptr %18, align 4
  br label %116

116:                                              ; preds = %66
  call void @llvm.lifetime.start.p0(i64 8, ptr %19) #3
  %117 = load i32, ptr %18, align 4
  %118 = zext i32 %117 to i64
  store i64 %118, ptr %19, align 8
  %119 = load i64, ptr %19, align 8
  %120 = load i64, ptr %19, align 8
  %121 = shl i64 %120, 24
  %122 = or i64 %119, %121
  %123 = and i64 %122, 71777214294589695
  store i64 %123, ptr %19, align 8
  call void @llvm.lifetime.start.p0(i64 8, ptr %20) #3
  %124 = load i32, ptr %16, align 4
  %125 = zext i32 %124 to i64
  store i64 %125, ptr %20, align 8
  %126 = load i64, ptr %20, align 8
  %127 = load i64, ptr %20, align 8
  %128 = shl i64 %127, 24
  %129 = or i64 %126, %128
  %130 = and i64 %129, 71777214294589695
  store i64 %130, ptr %20, align 8
  %131 = load i64, ptr %19, align 8
  %132 = load i64, ptr %20, align 8
  %133 = sub i64 %131, %132
  %134 = load i32, ptr %17, align 4
  %135 = zext i32 %134 to i64
  %136 = mul i64 %133, %135
  %137 = load i64, ptr %20, align 8
  %138 = shl i64 %137, 8
  %139 = add i64 %136, %138
  %140 = load i64, ptr %20, align 8
  %141 = sub i64 %139, %140
  store i64 %141, ptr %20, align 8
  %142 = load i64, ptr %20, align 8
  %143 = add i64 %142, 281479271743489
  store i64 %143, ptr %20, align 8
  %144 = load i64, ptr %20, align 8
  %145 = lshr i64 %144, 8
  %146 = and i64 %145, 71777214294589695
  %147 = load i64, ptr %20, align 8
  %148 = add i64 %147, %146
  store i64 %148, ptr %20, align 8
  %149 = load i64, ptr %20, align 8
  %150 = and i64 %149, -71777214294589696
  store i64 %150, ptr %20, align 8
  %151 = load i64, ptr %20, align 8
  %152 = lshr i64 %151, 8
  %153 = load i64, ptr %20, align 8
  %154 = lshr i64 %153, 32
  %155 = or i64 %152, %154
  %156 = trunc i64 %155 to i32
  store i32 %156, ptr %16, align 4
  call void @llvm.lifetime.end.p0(i64 8, ptr %20) #3
  call void @llvm.lifetime.end.p0(i64 8, ptr %19) #3
  br label %157

157:                                              ; preds = %116
  br label %158

158:                                              ; preds = %157
  call void @llvm.lifetime.end.p0(i64 4, ptr %18) #3
  call void @llvm.lifetime.end.p0(i64 4, ptr %17) #3
  br label %159

159:                                              ; preds = %158
  br label %160

160:                                              ; preds = %159
  %161 = load i8, ptr %11, align 1, !range !14, !noundef !15
  %162 = trunc i8 %161 to i1
  br i1 %162, label %163, label %167

163:                                              ; preds = %160
  %164 = load i32, ptr %12, align 4
  %165 = load i32, ptr %16, align 4
  %166 = or i32 %165, %164
  store i32 %166, ptr %16, align 4
  br label %167

167:                                              ; preds = %163, %160
  %168 = load i32, ptr %16, align 4
  %169 = load ptr, ptr %7, align 8
  store i32 %168, ptr %169, align 4
  %170 = load ptr, ptr %5, align 8
  %171 = getelementptr inbounds i8, ptr %170, i64 4
  store ptr %171, ptr %5, align 8
  %172 = load ptr, ptr %7, align 8
  %173 = getelementptr inbounds i8, ptr %172, i64 4
  store ptr %173, ptr %7, align 8
  call void @llvm.lifetime.end.p0(i64 4, ptr %16) #3
  call void @llvm.lifetime.end.p0(i64 4, ptr %15) #3
  br label %174

174:                                              ; preds = %167
  %175 = load i32, ptr %14, align 4
  %176 = add nsw i32 %175, 1
  store i32 %176, ptr %14, align 4
  br label %57, !llvm.loop !16

177:                                              ; preds = %57
  %178 = load i32, ptr %6, align 4
  %179 = load ptr, ptr %5, align 8
  %180 = sext i32 %178 to i64
  %181 = getelementptr inbounds i8, ptr %179, i64 %180
  store ptr %181, ptr %5, align 8
  %182 = load i32, ptr %8, align 4
  %183 = load ptr, ptr %7, align 8
  %184 = sext i32 %182 to i64
  %185 = getelementptr inbounds i8, ptr %183, i64 %184
  store ptr %185, ptr %7, align 8
  call void @llvm.lifetime.end.p0(i64 4, ptr %14) #3
  br label %52, !llvm.loop !17

186:                                              ; preds = %52
  call void @llvm.lifetime.end.p0(i64 4, ptr %13) #3
  call void @llvm.lifetime.end.p0(i64 4, ptr %12) #3
  call void @llvm.lifetime.end.p0(i64 1, ptr %11) #3
  call void @llvm.lifetime.end.p0(i64 8, ptr %10) #3
  call void @llvm.lifetime.end.p0(i64 8, ptr %9) #3
  call void @llvm.lifetime.end.p0(i64 4, ptr %8) #3
  call void @llvm.lifetime.end.p0(i64 8, ptr %7) #3
  call void @llvm.lifetime.end.p0(i64 4, ptr %6) #3
  call void @llvm.lifetime.end.p0(i64 8, ptr %5) #3
  call void @llvm.lifetime.end.p0(i64 4, ptr %4) #3
  call void @llvm.lifetime.end.p0(i64 4, ptr %3) #3
  ret void
}