; Function Attrs: nounwind uwtable
define internal void @Blit8888to8888PixelAlphaSwizzle(ptr noundef readonly captures(none) %0) #3 {
  %2 = alloca i32, align 4
  %3 = alloca i32, align 4
  %4 = getelementptr inbounds nuw i8, ptr %0, i64 48
  %5 = load i32, ptr %4, align 8
  %6 = getelementptr inbounds nuw i8, ptr %0, i64 52
  %7 = load i32, ptr %6, align 4
  %8 = getelementptr inbounds nuw i8, ptr %0, i64 8
  %9 = load ptr, ptr %8, align 8
  %10 = getelementptr inbounds nuw i8, ptr %0, i64 28
  %11 = load i32, ptr %10, align 4
  %12 = getelementptr inbounds nuw i8, ptr %0, i64 40
  %13 = load ptr, ptr %12, align 8
  %14 = getelementptr inbounds nuw i8, ptr %0, i64 60
  %15 = load i32, ptr %14, align 4
  %16 = getelementptr inbounds nuw i8, ptr %0, i64 64
  %17 = load ptr, ptr %16, align 8
  %18 = getelementptr inbounds nuw i8, ptr %0, i64 80
  %19 = load ptr, ptr %18, align 8
  %20 = getelementptr inbounds nuw i8, ptr %19, i64 20
  %21 = load i32, ptr %20, align 4
  %.not = icmp eq i32 %21, 0
  call void @llvm.lifetime.start.p0(i64 4, ptr nonnull %2) #6
  call void @llvm.lifetime.start.p0(i64 4, ptr nonnull %3) #6
  call void @SDL_Get8888AlphaMaskAndShift(ptr noundef %19, ptr noundef nonnull %2, ptr noundef nonnull %3) #6
  %.not5964 = icmp eq i32 %7, 0
  br i1 %.not5964, label %._crit_edge67, label %.preheader.lr.ph

.preheader.lr.ph:                                 ; preds = %1
  %22 = icmp sgt i32 %5, 0
  %23 = getelementptr inbounds nuw i8, ptr %17, i64 31
  %24 = getelementptr inbounds nuw i8, ptr %17, i64 28
  %25 = getelementptr inbounds nuw i8, ptr %19, i64 28
  %26 = getelementptr inbounds nuw i8, ptr %17, i64 29
  %27 = getelementptr inbounds nuw i8, ptr %19, i64 29
  %28 = getelementptr inbounds nuw i8, ptr %17, i64 30
  %29 = getelementptr inbounds nuw i8, ptr %19, i64 30
  %30 = sext i32 %11 to i64
  %31 = sext i32 %15 to i64
  br i1 %22, label %.preheader.us, label %._crit_edge67

.preheader.us:                                    ; preds = %.preheader.lr.ph, %._crit_edge.us
  %.in = phi i32 [ %32, %._crit_edge.us ], [ %7, %.preheader.lr.ph ]
  %.05466.us = phi ptr [ %91, %._crit_edge.us ], [ %9, %.preheader.lr.ph ]
  %.05565.us = phi ptr [ %92, %._crit_edge.us ], [ %13, %.preheader.lr.ph ]
  %32 = add nsw i32 %.in, -1
  br label %33

33:                                               ; preds = %.preheader.us, %33
  %.162.us = phi ptr [ %.05466.us, %.preheader.us ], [ %88, %33 ]
  %.15661.us = phi ptr [ %.05565.us, %.preheader.us ], [ %89, %33 ]
  %.05760.us = phi i32 [ 0, %.preheader.us ], [ %90, %33 ]
  %34 = load i32, ptr %.162.us, align 4
  %35 = load i32, ptr %.15661.us, align 4
  %36 = load i8, ptr %23, align 1
  %37 = zext nneg i8 %36 to i32
  %38 = lshr i32 %34, %37
  %39 = and i32 %38, 255
  %40 = load i8, ptr %24, align 4
  %41 = zext nneg i8 %40 to i32
  %42 = lshr i32 %34, %41
  %43 = and i32 %42, 255
  %44 = load i8, ptr %25, align 4
  %45 = zext nneg i8 %44 to i32
  %46 = shl i32 %43, %45
  %47 = load i8, ptr %26, align 1
  %48 = zext nneg i8 %47 to i32
  %49 = lshr i32 %34, %48
  %50 = and i32 %49, 255
  %51 = load i8, ptr %27, align 1
  %52 = zext nneg i8 %51 to i32
  %53 = shl i32 %50, %52
  %54 = or i32 %53, %46
  %55 = load i8, ptr %28, align 2
  %56 = zext nneg i8 %55 to i32
  %57 = lshr i32 %34, %56
  %58 = and i32 %57, 255
  %59 = load i8, ptr %29, align 2
  %60 = zext nneg i8 %59 to i32
  %61 = shl i32 %58, %60
  %62 = load i32, ptr %20, align 4
  %63 = or i32 %54, %62
  %64 = or i32 %63, %61
  %65 = zext i32 %64 to i64
  %66 = shl nuw nsw i64 %65, 24
  %67 = or i64 %66, %65
  %68 = and i64 %67, 71777214294589695
  %69 = zext i32 %35 to i64
  %70 = shl nuw nsw i64 %69, 24
  %71 = or i64 %70, %69
  %72 = and i64 %71, 71777214294589695
  %73 = sub nsw i64 %68, %72
  %74 = zext nneg i32 %39 to i64
  %75 = mul i64 %73, %74
  %reass.sub = mul nuw i64 %72, 255
  %76 = add nuw i64 %reass.sub, 281479271743489
  %77 = add i64 %76, %75
  %78 = lshr i64 %77, 8
  %79 = and i64 %78, 71777214294589695
  %80 = add i64 %79, %77
  %81 = and i64 %80, -71777214294589696
  %82 = lshr exact i64 %81, 8
  %83 = lshr i64 %81, 32
  %84 = or disjoint i64 %82, %83
  %85 = trunc i64 %84 to i32
  %86 = load i32, ptr %2, align 4
  %87 = select i1 %.not, i32 %86, i32 0
  %.058.us = or i32 %87, %85
  store i32 %.058.us, ptr %.15661.us, align 4
  %88 = getelementptr inbounds nuw i8, ptr %.162.us, i64 4
  %89 = getelementptr inbounds nuw i8, ptr %.15661.us, i64 4
  %90 = add nuw nsw i32 %.05760.us, 1
  %exitcond.not = icmp eq i32 %90, %5
  br i1 %exitcond.not, label %._crit_edge.us, label %33, !llvm.loop !14

._crit_edge.us:                                   ; preds = %33
  %91 = getelementptr inbounds i8, ptr %88, i64 %30
  %92 = getelementptr inbounds i8, ptr %89, i64 %31
  %.not59.us = icmp eq i32 %32, 0
  br i1 %.not59.us, label %._crit_edge67, label %.preheader.us, !llvm.loop !15

._crit_edge67:                                    ; preds = %._crit_edge.us, %.preheader.lr.ph, %1
  call void @llvm.lifetime.end.p0(i64 4, ptr nonnull %3) #6
  call void @llvm.lifetime.end.p0(i64 4, ptr nonnull %2) #6
  ret void
}